; Function Attrs: mustprogress uwtable
define void @_ZN6icu_776number4impl17blueprint_helpers19parseCurrencyOptionERKNS_13StringSegmentERNS1_10MacroPropsER10UErrorCode(ptr noundef nonnull align 8 dereferenceable(17) %0, ptr noundef nonnull align 8 dereferenceable(472) %1, ptr noundef nonnull writeonly align 4 captures(none) dereferenceable(4) %2) local_unnamed_addr #1 personality ptr @__gxx_personality_v0 {
  %4 = alloca %"class.icu_77::UnicodeString", align 8
  %5 = alloca i32, align 4
  %6 = alloca %"class.icu_77::CurrencyUnit", align 8
  %7 = alloca %"class.icu_77::ConstChar16Ptr", align 8
  %8 = tail call noundef i32 @_ZNK6icu_7713StringSegment6lengthEv(ptr noundef nonnull align 8 dereferenceable(17) %0)
  %.not = icmp eq i32 %8, 3
  br i1 %.not, label %10, label %9

9:                                                ; preds = %3
  store i32 65811, ptr %2, align 4, !tbaa !13
  br label %35

10:                                               ; preds = %3
  call void @llvm.lifetime.start.p0(i64 64, ptr nonnull %4) #18
  call void @_ZNK6icu_7713StringSegment19toTempUnicodeStringEv(ptr dead_on_unwind nonnull writable sret(%"class.icu_77::UnicodeString") align 8 %4, ptr noundef nonnull align 8 dereferenceable(17) %0)
  %11 = getelementptr inbounds nuw i8, ptr %4, i64 8
  %12 = load i16, ptr %11, align 8, !tbaa !25
  %13 = and i16 %12, 17
  %.not.i = icmp eq i16 %13, 0
  br i1 %.not.i, label %14, label %_ZNK6icu_7713UnicodeString9getBufferEv.exit

14:                                               ; preds = %10
  %15 = and i16 %12, 2
  %.not2.i = icmp eq i16 %15, 0
  br i1 %.not2.i, label %18, label %16

16:                                               ; preds = %14
  %17 = getelementptr inbounds nuw i8, ptr %4, i64 10
  br label %_ZNK6icu_7713UnicodeString9getBufferEv.exit

18:                                               ; preds = %14
  %19 = getelementptr inbounds nuw i8, ptr %4, i64 24
  %20 = load ptr, ptr %19, align 8, !tbaa !25
  br label %_ZNK6icu_7713UnicodeString9getBufferEv.exit

_ZNK6icu_7713UnicodeString9getBufferEv.exit:      ; preds = %10, %16, %18
  %.0.i = phi ptr [ %17, %16 ], [ %20, %18 ], [ null, %10 ]
  call void @_ZN6icu_7713UnicodeStringD1Ev(ptr noundef nonnull align 8 dereferenceable(64) %4) #18
  call void @llvm.lifetime.end.p0(i64 64, ptr nonnull %4) #18
  call void @llvm.lifetime.start.p0(i64 4, ptr nonnull %5) #18
  store i32 0, ptr %5, align 4, !tbaa !13
  call void @llvm.lifetime.start.p0(i64 32, ptr nonnull %6) #18
  store ptr %.0.i, ptr %7, align 8, !tbaa !108
  invoke void @_ZN6icu_7712CurrencyUnitC1ENS_14ConstChar16PtrER10UErrorCode(ptr noundef nonnull align 8 dereferenceable(28) %6, ptr noundef nonnull %7, ptr noundef nonnull align 4 dereferenceable(4) %5)
          to label %21 unwind label %26

21:                                               ; preds = %_ZNK6icu_7713UnicodeString9getBufferEv.exit
  %22 = load ptr, ptr %7, align 8, !tbaa !108
  call void asm sideeffect "", "rm,~{memory},~{dirflag},~{fpsr},~{flags}"(ptr %22) #18, !srcloc !15
  %23 = load i32, ptr %5, align 4, !tbaa !13
  %24 = icmp slt i32 %23, 1
  br i1 %24, label %31, label %25

25:                                               ; preds = %21
  store i32 65811, ptr %2, align 4, !tbaa !13
  br label %34

26:                                               ; preds = %_ZNK6icu_7713UnicodeString9getBufferEv.exit
  %27 = landingpad { ptr, i32 }
          cleanup
  %28 = load ptr, ptr %7, align 8, !tbaa !108
  call void asm sideeffect "", "rm,~{memory},~{dirflag},~{fpsr},~{flags}"(ptr %28) #18, !srcloc !15
  br label %36

29:                                               ; preds = %31
  %30 = landingpad { ptr, i32 }
          cleanup
  call void @_ZN6icu_7712CurrencyUnitD1Ev(ptr noundef nonnull align 8 dereferenceable(28) %6) #18
  br label %36

31:                                               ; preds = %21
  %32 = getelementptr inbounds nuw i8, ptr %1, i64 16
  %33 = invoke noundef nonnull align 8 dereferenceable(19) ptr @_ZN6icu_7711MeasureUnitaSERKS0_(ptr noundef nonnull align 8 dereferenceable(19) %32, ptr noundef nonnull align 8 dereferenceable(19) %6)
          to label %34 unwind label %29

34:                                               ; preds = %31, %25
  call void @_ZN6icu_7712CurrencyUnitD1Ev(ptr noundef nonnull align 8 dereferenceable(28) %6) #18
  call void @llvm.lifetime.end.p0(i64 32, ptr nonnull %6) #18
  call void @llvm.lifetime.end.p0(i64 4, ptr nonnull %5) #18
  br label %35

35:                                               ; preds = %34, %9
  ret void

36:                                               ; preds = %29, %26
  %.pn = phi { ptr, i32 } [ %30, %29 ], [ %27, %26 ]
  call void @llvm.lifetime.end.p0(i64 32, ptr nonnull %6) #18
  call void @llvm.lifetime.end.p0(i64 4, ptr nonnull %5) #18
  resume { ptr, i32 } %.pn
}